target datalayout = "e-m:e-p270:32:32-p271:32:32-p272:64:64-i64:64-i128:128-f80:128-n8:16:32:64-S128"
target triple = "x86_64-pc-linux-gnu"

%struct._proto_node = type { ptr, ptr, ptr, ptr, ptr, ptr, ptr }
%struct.field_info = type { ptr, i32, i32, i32, i32, i32, i32, ptr, ptr, ptr, i32, i32 }

; Function Attrs: null_pointer_is_valid sspstrong uwtable
define void @proto_tree_children_foreach(ptr noundef %0, ptr noundef %1, ptr noundef %2) #0 {
  %4 = alloca ptr, align 8
  %5 = alloca ptr, align 8
  %6 = alloca ptr, align 8
  %7 = alloca ptr, align 8
  %8 = alloca ptr, align 8
  %9 = alloca i32, align 4
  store ptr %0, ptr %4, align 8
  store ptr %1, ptr %5, align 8
  store ptr %2, ptr %6, align 8
  call void @llvm.lifetime.start.p0(i64 8, ptr %7) #24
  %10 = load ptr, ptr %4, align 8
  store ptr %10, ptr %7, align 8
  call void @llvm.lifetime.start.p0(i64 8, ptr %8) #24
  %11 = load ptr, ptr %7, align 8
  %12 = icmp ne ptr %11, null
  br i1 %12, label %14, label %13

13:                                               ; preds = %3
  store i32 1, ptr %9, align 4
  br label %30

14:                                               ; preds = %3
  %15 = load ptr, ptr %7, align 8
  %16 = getelementptr inbounds nuw %struct._proto_node, ptr %15, i32 0, i32 0
  %17 = load ptr, ptr %16, align 8
  store ptr %17, ptr %7, align 8
  br label %18

18:                                               ; preds = %21, %14
  %19 = load ptr, ptr %7, align 8
  %20 = icmp ne ptr %19, null
  br i1 %20, label %21, label %29

21:                                               ; preds = %18
  %22 = load ptr, ptr %7, align 8
  store ptr %22, ptr %8, align 8
  %23 = load ptr, ptr %8, align 8
  %24 = getelementptr inbounds nuw %struct._proto_node, ptr %23, i32 0, i32 2
  %25 = load ptr, ptr %24, align 8
  store ptr %25, ptr %7, align 8
  %26 = load ptr, ptr %5, align 8
  %27 = load ptr, ptr %8, align 8
  %28 = load ptr, ptr %6, align 8
  call void %26(ptr noundef %27, ptr noundef %28)
  br label %18, !llvm.loop !13

29:                                               ; preds = %18
  store i32 0, ptr %9, align 4
  br label %30

30:                                               ; preds = %29, %13
  call void @llvm.lifetime.end.p0(i64 8, ptr %8) #24
  call void @llvm.lifetime.end.p0(i64 8, ptr %7) #24
  %31 = load i32, ptr %9, align 4
  switch i32 %31, label %33 [
    i32 0, label %32
    i32 1, label %32
  ]

32:                                               ; preds = %30, %30
  ret void

33:                                               ; preds = %30
  unreachable
}

; Function Attrs: null_pointer_is_valid sspstrong uwtable
define internal void @proto_tree_free_node(ptr noundef %0, ptr noundef %1) #0 {
  %3 = alloca ptr, align 8
  %4 = alloca ptr, align 8
  %5 = alloca ptr, align 8
  store ptr %0, ptr %3, align 8
  store ptr %1, ptr %4, align 8
  call void @llvm.lifetime.start.p0(i64 8, ptr %5) #24
  %6 = load ptr, ptr %3, align 8
  %7 = getelementptr inbounds nuw %struct._proto_node, ptr %6, i32 0, i32 5
  %8 = load ptr, ptr %7, align 8
  store ptr %8, ptr %5, align 8
  %9 = load ptr, ptr %3, align 8
  call void @proto_tree_children_foreach(ptr noundef %9, ptr noundef @proto_tree_free_node, ptr noundef null)
  %10 = load ptr, ptr %5, align 8
  %11 = icmp ne ptr %10, null
  br i1 %11, label %12, label %18

12:                                               ; preds = %2
  %13 = load ptr, ptr %5, align 8
  %14 = getelementptr inbounds nuw %struct.field_info, ptr %13, i32 0, i32 9
  %15 = load ptr, ptr %14, align 8
  call void @fvalue_free(ptr noundef %15)
  %16 = load ptr, ptr %5, align 8
  %17 = getelementptr inbounds nuw %struct.field_info, ptr %16, i32 0, i32 9
  store ptr null, ptr %17, align 8
  br label %18

18:                                               ; preds = %12, %2
  call void @llvm.lifetime.end.p0(i64 8, ptr %5) #24
  ret void
}