; Function Attrs: null_pointer_is_valid sspstrong uwtable
define internal fastcc void @proto_tree_free_node(ptr noundef readonly captures(address_is_null) %0) unnamed_addr #0 {
  %2 = getelementptr inbounds nuw i8, ptr %0, i64 40
  %3 = load ptr, ptr %2, align 8
  %.not.i = icmp eq ptr %0, null
  br i1 %.not.i, label %proto_tree_children_foreach.exit, label %4

4:                                                ; preds = %1
  %5 = load ptr, ptr %0, align 8
  %.not1011.i = icmp eq ptr %5, null
  br i1 %.not1011.i, label %proto_tree_children_foreach.exit, label %.lr.ph.i

.lr.ph.i:                                         ; preds = %4, %.lr.ph.i
  %.012.i = phi ptr [ %7, %.lr.ph.i ], [ %5, %4 ]
  %6 = getelementptr inbounds nuw i8, ptr %.012.i, i64 16
  %7 = load ptr, ptr %6, align 8
  tail call fastcc void @proto_tree_free_node(ptr noundef nonnull %.012.i)
  %.not10.i = icmp eq ptr %7, null
  br i1 %.not10.i, label %proto_tree_children_foreach.exit, label %.lr.ph.i, !llvm.loop !13

proto_tree_children_foreach.exit:                 ; preds = %.lr.ph.i, %1, %4
  %.not = icmp eq ptr %3, null
  br i1 %.not, label %11, label %8

8:                                                ; preds = %proto_tree_children_foreach.exit
  %9 = getelementptr inbounds nuw i8, ptr %3, i64 48
  %10 = load ptr, ptr %9, align 8
  tail call void @fvalue_free(ptr noundef %10)
  store ptr null, ptr %9, align 8
  br label %11

11:                                               ; preds = %8, %proto_tree_children_foreach.exit
  ret void
}